; ModuleID = 'source-C-CXX/15/690.c'
source_filename = "source-C-CXX/15/690.c"
target datalayout = "e-m:e-p270:32:32-p271:32:32-p272:64:64-i64:64-f80:128-n8:16:32:64-S128"
target triple = "x86_64-pc-linux-gnu"

@.str = private unnamed_addr constant [3 x i8] c"%d\00", align 1
@.str.1 = private unnamed_addr constant [5 x i8] c"%02d\00", align 1
@.str.2 = private unnamed_addr constant [5 x i8] c"%03d\00", align 1
@.str.3 = private unnamed_addr constant [5 x i8] c"%04d\00", align 1

; Function Attrs: nofree nounwind sspstrong uwtable
define dso_local i32 @main() local_unnamed_addr #0 {
  %1 = alloca i32, align 4
  %2 = bitcast i32* %1 to i8*
  call void @llvm.lifetime.start.p0i8(i64 4, i8* nonnull %2) #3
  %3 = call i32 (i8*, ...) @__isoc99_scanf(i8* getelementptr inbounds ([3 x i8], [3 x i8]* @.str, i64 0, i64 0), i32* nonnull %1)
  %4 = load i32, i32* %1, align 4, !tbaa !5
  %5 = srem i32 %4, 10
  %6 = mul nsw i32 %5, 10
  %7 = sdiv i32 %4, 10
  %8 = add nsw i32 %6, %7
  %9 = mul nsw i32 %5, 100
  %10 = srem i32 %4, 100
  %11 = sub nsw i32 %10, %5
  %12 = sdiv i32 %4, 100
  %13 = add nsw i32 %11, %12
  %14 = add nsw i32 %13, %9
  %15 = mul nsw i32 %5, 1000
  %16 = mul nsw i32 %11, 10
  %17 = srem i32 %4, 1000
  %18 = sub nsw i32 %17, %10
  %19 = trunc i32 %18 to i16
  %20 = sdiv i16 %19, 10
  %21 = sext i16 %20 to i32
  %22 = sdiv i32 %4, 1000
  %23 = add nsw i32 %15, %22
  %24 = add nsw i32 %23, %16
  %25 = add nsw i32 %24, %21
  %26 = icmp eq i32 %5, %4
  br i1 %26, label %27, label %29

27:                                               ; preds = %0
  %28 = call i32 (i8*, ...) @printf(i8* nonnull dereferenceable(1) getelementptr inbounds ([3 x i8], [3 x i8]* @.str, i64 0, i64 0), i32 %4)
  br label %39

29:                                               ; preds = %0
  %30 = icmp eq i32 %10, %4
  br i1 %30, label %31, label %33

31:                                               ; preds = %29
  %32 = call i32 (i8*, ...) @printf(i8* nonnull dereferenceable(1) getelementptr inbounds ([5 x i8], [5 x i8]* @.str.1, i64 0, i64 0), i32 %8)
  br label %39

33:                                               ; preds = %29
  %34 = icmp eq i32 %17, %4
  br i1 %34, label %35, label %37

35:                                               ; preds = %33
  %36 = call i32 (i8*, ...) @printf(i8* nonnull dereferenceable(1) getelementptr inbounds ([5 x i8], [5 x i8]* @.str.2, i64 0, i64 0), i32 %14)
  br label %39

37:                                               ; preds = %33
  %38 = call i32 (i8*, ...) @printf(i8* nonnull dereferenceable(1) getelementptr inbounds ([5 x i8], [5 x i8]* @.str.3, i64 0, i64 0), i32 %25)
  br label %39

39:                                               ; preds = %31, %37, %35, %27
  call void @llvm.lifetime.end.p0i8(i64 4, i8* nonnull %2) #3
  ret i32 0
}

; Function Attrs: argmemonly mustprogress nofree nosync nounwind willreturn
declare void @llvm.lifetime.start.p0i8(i64 immarg, i8* nocapture) #1

; Function Attrs: nofree nounwind
declare noundef i32 @__isoc99_scanf(i8* nocapture noundef readonly, ...) local_unnamed_addr #2

; Function Attrs: nofree nounwind
declare noundef i32 @printf(i8* nocapture noundef readonly, ...) local_unnamed_addr #2

; Function Attrs: argmemonly mustprogress nofree nosync nounwind willreturn
declare void @llvm.lifetime.end.p0i8(i64 immarg, i8* nocapture) #1


!llvm.module.flags = !{!0, !1, !2, !3}
!llvm.ident = !{!4}

!0 = !{i32 1, !"wchar_size", i32 4}
!1 = !{i32 7, !"PIC Level", i32 2}
!2 = !{i32 7, !"PIE Level", i32 2}
!3 = !{i32 7, !"uwtable", i32 1}
!4 = !{!"clang version 13.0.0"}
!5 = !{!6, !6, i64 0}
!6 = !{!"int", !7, i64 0}
!7 = !{!"omnipotent char", !8, i64 0}
!8 = !{!"Simple C/C++ TBAA"}
